target datalayout = "e-m:e-p270:32:32-p271:32:32-p272:64:64-i64:64-i128:128-f80:128-n8:16:32:64-S128"
target triple = "x86_64-pc-linux-gnu"

%struct.quic_fifd_st = type { ptr, ptr, ptr, ptr, ptr, ptr, ptr, ptr, ptr, ptr, ptr, ptr, ptr }
%struct.quic_txpim_pkt_st = type { %struct.ossl_ackm_tx_pkt_st, ptr, ptr, i8, i8 }
%struct.ossl_ackm_tx_pkt_st = type { i64, i64, %struct.OSSL_TIME, i64, i8, ptr, ptr, ptr, ptr, %struct.anon, ptr, ptr }
%struct.OSSL_TIME = type { i64 }
%struct.anon = type { ptr, ptr }
%struct.quic_cfq_item_st = type { ptr, ptr }
%struct.quic_txpim_chunk_st = type { i64, i64, i64, i8 }

; Function Attrs: nounwind uwtable
define internal void @on_acked(ptr noundef %0) #0 {
  %2 = alloca ptr, align 8
  %3 = alloca ptr, align 8
  %4 = alloca ptr, align 8
  %5 = alloca ptr, align 8
  %6 = alloca i64, align 8
  %7 = alloca i64, align 8
  %8 = alloca ptr, align 8
  %9 = alloca ptr, align 8
  %10 = alloca ptr, align 8
  store ptr %0, ptr %2, align 8, !tbaa !14
  call void @llvm.lifetime.start.p0(i64 8, ptr %3) #5
  %11 = load ptr, ptr %2, align 8, !tbaa !14
  store ptr %11, ptr %3, align 8, !tbaa !29
  call void @llvm.lifetime.start.p0(i64 8, ptr %4) #5
  %12 = load ptr, ptr %3, align 8, !tbaa !29
  %13 = getelementptr inbounds nuw %struct.quic_txpim_pkt_st, ptr %12, i32 0, i32 2
  %14 = load ptr, ptr %13, align 8, !tbaa !31
  store ptr %14, ptr %4, align 8, !tbaa !3
  call void @llvm.lifetime.start.p0(i64 8, ptr %5) #5
  %15 = load ptr, ptr %3, align 8, !tbaa !29
  %16 = call ptr @ossl_quic_txpim_pkt_get_chunks(ptr noundef %15)
  store ptr %16, ptr %5, align 8, !tbaa !52
  call void @llvm.lifetime.start.p0(i64 8, ptr %6) #5
  call void @llvm.lifetime.start.p0(i64 8, ptr %7) #5
  %17 = load ptr, ptr %3, align 8, !tbaa !29
  %18 = call i64 @ossl_quic_txpim_pkt_get_num_chunks(ptr noundef %17)
  store i64 %18, ptr %7, align 8, !tbaa !54
  call void @llvm.lifetime.start.p0(i64 8, ptr %8) #5
  call void @llvm.lifetime.start.p0(i64 8, ptr %9) #5
  call void @llvm.lifetime.start.p0(i64 8, ptr %10) #5
  store i64 0, ptr %6, align 8, !tbaa !54
  br label %19

19:                                               ; preds = %166, %1
  %20 = load i64, ptr %6, align 8, !tbaa !54
  %21 = load i64, ptr %7, align 8, !tbaa !54
  %22 = icmp ult i64 %20, %21
  br i1 %22, label %23, label %169

23:                                               ; preds = %19
  %24 = load ptr, ptr %4, align 8, !tbaa !3
  %25 = getelementptr inbounds nuw %struct.quic_fifd_st, ptr %24, i32 0, i32 3
  %26 = load ptr, ptr %25, align 8, !tbaa !19
  %27 = load ptr, ptr %5, align 8, !tbaa !52
  %28 = load i64, ptr %6, align 8, !tbaa !54
  %29 = getelementptr inbounds nuw %struct.quic_txpim_chunk_st, ptr %27, i64 %28
  %30 = getelementptr inbounds nuw %struct.quic_txpim_chunk_st, ptr %29, i32 0, i32 0
  %31 = load i64, ptr %30, align 8, !tbaa !55
  %32 = load ptr, ptr %3, align 8, !tbaa !29
  %33 = getelementptr inbounds nuw %struct.quic_txpim_pkt_st, ptr %32, i32 0, i32 0
  %34 = getelementptr inbounds nuw %struct.ossl_ackm_tx_pkt_st, ptr %33, i32 0, i32 4
  %35 = load i8, ptr %34, align 8
  %36 = and i8 %35, 3
  %37 = zext i8 %36 to i32
  %38 = load ptr, ptr %4, align 8, !tbaa !3
  %39 = getelementptr inbounds nuw %struct.quic_fifd_st, ptr %38, i32 0, i32 4
  %40 = load ptr, ptr %39, align 8, !tbaa !20
  %41 = call ptr %26(i64 noundef %31, i32 noundef %37, ptr noundef %40)
  store ptr %41, ptr %8, align 8, !tbaa !57
  %42 = load ptr, ptr %8, align 8, !tbaa !57
  %43 = icmp eq ptr %42, null
  br i1 %43, label %44, label %45

44:                                               ; preds = %23
  br label %166

45:                                               ; preds = %23
  %46 = load ptr, ptr %5, align 8, !tbaa !52
  %47 = load i64, ptr %6, align 8, !tbaa !54
  %48 = getelementptr inbounds nuw %struct.quic_txpim_chunk_st, ptr %46, i64 %47
  %49 = getelementptr inbounds nuw %struct.quic_txpim_chunk_st, ptr %48, i32 0, i32 2
  %50 = load i64, ptr %49, align 8, !tbaa !59
  %51 = load ptr, ptr %5, align 8, !tbaa !52
  %52 = load i64, ptr %6, align 8, !tbaa !54
  %53 = getelementptr inbounds nuw %struct.quic_txpim_chunk_st, ptr %51, i64 %52
  %54 = getelementptr inbounds nuw %struct.quic_txpim_chunk_st, ptr %53, i32 0, i32 1
  %55 = load i64, ptr %54, align 8, !tbaa !60
  %56 = icmp uge i64 %50, %55
  br i1 %56, label %57, label %70

57:                                               ; preds = %45
  %58 = load ptr, ptr %8, align 8, !tbaa !57
  %59 = load ptr, ptr %5, align 8, !tbaa !52
  %60 = load i64, ptr %6, align 8, !tbaa !54
  %61 = getelementptr inbounds nuw %struct.quic_txpim_chunk_st, ptr %59, i64 %60
  %62 = getelementptr inbounds nuw %struct.quic_txpim_chunk_st, ptr %61, i32 0, i32 1
  %63 = load i64, ptr %62, align 8, !tbaa !60
  %64 = load ptr, ptr %5, align 8, !tbaa !52
  %65 = load i64, ptr %6, align 8, !tbaa !54
  %66 = getelementptr inbounds nuw %struct.quic_txpim_chunk_st, ptr %64, i64 %65
  %67 = getelementptr inbounds nuw %struct.quic_txpim_chunk_st, ptr %66, i32 0, i32 2
  %68 = load i64, ptr %67, align 8, !tbaa !59
  %69 = call i32 @ossl_quic_sstream_mark_acked(ptr noundef %58, i64 noundef %63, i64 noundef %68)
  br label %70

70:                                               ; preds = %57, %45
  %71 = load ptr, ptr %5, align 8, !tbaa !52
  %72 = load i64, ptr %6, align 8, !tbaa !54
  %73 = getelementptr inbounds nuw %struct.quic_txpim_chunk_st, ptr %71, i64 %72
  %74 = getelementptr inbounds nuw %struct.quic_txpim_chunk_st, ptr %73, i32 0, i32 3
  %75 = load i8, ptr %74, align 8
  %76 = and i8 %75, 1
  %77 = zext i8 %76 to i32
  %78 = icmp ne i32 %77, 0
  br i1 %78, label %79, label %89

79:                                               ; preds = %70
  %80 = load ptr, ptr %5, align 8, !tbaa !52
  %81 = load i64, ptr %6, align 8, !tbaa !54
  %82 = getelementptr inbounds nuw %struct.quic_txpim_chunk_st, ptr %80, i64 %81
  %83 = getelementptr inbounds nuw %struct.quic_txpim_chunk_st, ptr %82, i32 0, i32 0
  %84 = load i64, ptr %83, align 8, !tbaa !55
  %85 = icmp ne i64 %84, -1
  br i1 %85, label %86, label %89

86:                                               ; preds = %79
  %87 = load ptr, ptr %8, align 8, !tbaa !57
  %88 = call i32 @ossl_quic_sstream_mark_acked_fin(ptr noundef %87)
  br label %89

89:                                               ; preds = %86, %79, %70
  %90 = load ptr, ptr %5, align 8, !tbaa !52
  %91 = load i64, ptr %6, align 8, !tbaa !54
  %92 = getelementptr inbounds nuw %struct.quic_txpim_chunk_st, ptr %90, i64 %91
  %93 = getelementptr inbounds nuw %struct.quic_txpim_chunk_st, ptr %92, i32 0, i32 3
  %94 = load i8, ptr %93, align 8
  %95 = lshr i8 %94, 1
  %96 = and i8 %95, 1
  %97 = zext i8 %96 to i32
  %98 = icmp ne i32 %97, 0
  br i1 %98, label %99, label %119

99:                                               ; preds = %89
  %100 = load ptr, ptr %5, align 8, !tbaa !52
  %101 = load i64, ptr %6, align 8, !tbaa !54
  %102 = getelementptr inbounds nuw %struct.quic_txpim_chunk_st, ptr %100, i64 %101
  %103 = getelementptr inbounds nuw %struct.quic_txpim_chunk_st, ptr %102, i32 0, i32 0
  %104 = load i64, ptr %103, align 8, !tbaa !55
  %105 = icmp ne i64 %104, -1
  br i1 %105, label %106, label %119

106:                                              ; preds = %99
  %107 = load ptr, ptr %4, align 8, !tbaa !3
  %108 = getelementptr inbounds nuw %struct.quic_fifd_st, ptr %107, i32 0, i32 7
  %109 = load ptr, ptr %108, align 8, !tbaa !23
  %110 = load ptr, ptr %5, align 8, !tbaa !52
  %111 = load i64, ptr %6, align 8, !tbaa !54
  %112 = getelementptr inbounds nuw %struct.quic_txpim_chunk_st, ptr %110, i64 %111
  %113 = getelementptr inbounds nuw %struct.quic_txpim_chunk_st, ptr %112, i32 0, i32 0
  %114 = load i64, ptr %113, align 8, !tbaa !55
  %115 = load ptr, ptr %3, align 8, !tbaa !29
  %116 = load ptr, ptr %4, align 8, !tbaa !3
  %117 = getelementptr inbounds nuw %struct.quic_fifd_st, ptr %116, i32 0, i32 8
  %118 = load ptr, ptr %117, align 8, !tbaa !24
  call void %109(i64 noundef 5, i64 noundef %114, ptr noundef %115, ptr noundef %118)
  br label %119

119:                                              ; preds = %106, %99, %89
  %120 = load ptr, ptr %5, align 8, !tbaa !52
  %121 = load i64, ptr %6, align 8, !tbaa !54
  %122 = getelementptr inbounds nuw %struct.quic_txpim_chunk_st, ptr %120, i64 %121
  %123 = getelementptr inbounds nuw %struct.quic_txpim_chunk_st, ptr %122, i32 0, i32 3
  %124 = load i8, ptr %123, align 8
  %125 = lshr i8 %124, 2
  %126 = and i8 %125, 1
  %127 = zext i8 %126 to i32
  %128 = icmp ne i32 %127, 0
  br i1 %128, label %129, label %149

129:                                              ; preds = %119
  %130 = load ptr, ptr %5, align 8, !tbaa !52
  %131 = load i64, ptr %6, align 8, !tbaa !54
  %132 = getelementptr inbounds nuw %struct.quic_txpim_chunk_st, ptr %130, i64 %131
  %133 = getelementptr inbounds nuw %struct.quic_txpim_chunk_st, ptr %132, i32 0, i32 0
  %134 = load i64, ptr %133, align 8, !tbaa !55
  %135 = icmp ne i64 %134, -1
  br i1 %135, label %136, label %149

136:                                              ; preds = %129
  %137 = load ptr, ptr %4, align 8, !tbaa !3
  %138 = getelementptr inbounds nuw %struct.quic_fifd_st, ptr %137, i32 0, i32 7
  %139 = load ptr, ptr %138, align 8, !tbaa !23
  %140 = load ptr, ptr %5, align 8, !tbaa !52
  %141 = load i64, ptr %6, align 8, !tbaa !54
  %142 = getelementptr inbounds nuw %struct.quic_txpim_chunk_st, ptr %140, i64 %141
  %143 = getelementptr inbounds nuw %struct.quic_txpim_chunk_st, ptr %142, i32 0, i32 0
  %144 = load i64, ptr %143, align 8, !tbaa !55
  %145 = load ptr, ptr %3, align 8, !tbaa !29
  %146 = load ptr, ptr %4, align 8, !tbaa !3
  %147 = getelementptr inbounds nuw %struct.quic_fifd_st, ptr %146, i32 0, i32 8
  %148 = load ptr, ptr %147, align 8, !tbaa !24
  call void %139(i64 noundef 4, i64 noundef %144, ptr noundef %145, ptr noundef %148)
  br label %149

149:                                              ; preds = %136, %129, %119
  %150 = load ptr, ptr %8, align 8, !tbaa !57
  %151 = call i32 @ossl_quic_sstream_is_totally_acked(ptr noundef %150)
  %152 = icmp ne i32 %151, 0
  br i1 %152, label %153, label %165

153:                                              ; preds = %149
  %154 = load ptr, ptr %4, align 8, !tbaa !3
  %155 = getelementptr inbounds nuw %struct.quic_fifd_st, ptr %154, i32 0, i32 9
  %156 = load ptr, ptr %155, align 8, !tbaa !25
  %157 = load ptr, ptr %5, align 8, !tbaa !52
  %158 = load i64, ptr %6, align 8, !tbaa !54
  %159 = getelementptr inbounds nuw %struct.quic_txpim_chunk_st, ptr %157, i64 %158
  %160 = getelementptr inbounds nuw %struct.quic_txpim_chunk_st, ptr %159, i32 0, i32 0
  %161 = load i64, ptr %160, align 8, !tbaa !55
  %162 = load ptr, ptr %4, align 8, !tbaa !3
  %163 = getelementptr inbounds nuw %struct.quic_fifd_st, ptr %162, i32 0, i32 10
  %164 = load ptr, ptr %163, align 8, !tbaa !26
  call void %156(i64 noundef %161, ptr noundef %164)
  br label %165

165:                                              ; preds = %153, %149
  br label %166

166:                                              ; preds = %165, %44
  %167 = load i64, ptr %6, align 8, !tbaa !54
  %168 = add i64 %167, 1
  store i64 %168, ptr %6, align 8, !tbaa !54
  br label %19, !llvm.loop !65

169:                                              ; preds = %19
  %170 = load ptr, ptr %3, align 8, !tbaa !29
  %171 = getelementptr inbounds nuw %struct.quic_txpim_pkt_st, ptr %170, i32 0, i32 1
  %172 = load ptr, ptr %171, align 8, !tbaa !46
  store ptr %172, ptr %9, align 8, !tbaa !47
  br label %173

173:                                              ; preds = %184, %169
  %174 = load ptr, ptr %9, align 8, !tbaa !47
  %175 = icmp ne ptr %174, null
  br i1 %175, label %176, label %186

176:                                              ; preds = %173
  %177 = load ptr, ptr %9, align 8, !tbaa !47
  %178 = getelementptr inbounds nuw %struct.quic_cfq_item_st, ptr %177, i32 0, i32 1
  %179 = load ptr, ptr %178, align 8, !tbaa !48
  store ptr %179, ptr %10, align 8, !tbaa !47
  %180 = load ptr, ptr %4, align 8, !tbaa !3
  %181 = getelementptr inbounds nuw %struct.quic_fifd_st, ptr %180, i32 0, i32 0
  %182 = load ptr, ptr %181, align 8, !tbaa !15
  %183 = load ptr, ptr %9, align 8, !tbaa !47
  call void @ossl_quic_cfq_release(ptr noundef %182, ptr noundef %183)
  br label %184

184:                                              ; preds = %176
  %185 = load ptr, ptr %10, align 8, !tbaa !47
  store ptr %185, ptr %9, align 8, !tbaa !47
  br label %173, !llvm.loop !66

186:                                              ; preds = %173
  %187 = load ptr, ptr %4, align 8, !tbaa !3
  %188 = getelementptr inbounds nuw %struct.quic_fifd_st, ptr %187, i32 0, i32 2
  %189 = load ptr, ptr %188, align 8, !tbaa !18
  %190 = load ptr, ptr %3, align 8, !tbaa !29
  call void @ossl_quic_txpim_pkt_release(ptr noundef %189, ptr noundef %190)
  call void @llvm.lifetime.end.p0(i64 8, ptr %10) #5
  call void @llvm.lifetime.end.p0(i64 8, ptr %9) #5
  call void @llvm.lifetime.end.p0(i64 8, ptr %8) #5
  call void @llvm.lifetime.end.p0(i64 8, ptr %7) #5
  call void @llvm.lifetime.end.p0(i64 8, ptr %6) #5
  call void @llvm.lifetime.end.p0(i64 8, ptr %5) #5
  call void @llvm.lifetime.end.p0(i64 8, ptr %4) #5
  call void @llvm.lifetime.end.p0(i64 8, ptr %3) #5
  ret void
}