; Function Attrs: nounwind uwtable
define internal void @on_acked(ptr noundef %0) #2 {
  %2 = getelementptr inbounds nuw i8, ptr %0, i64 112
  %3 = load ptr, ptr %2, align 8, !tbaa !23
  %4 = tail call ptr @ossl_quic_txpim_pkt_get_chunks(ptr noundef %0) #5
  %5 = tail call i64 @ossl_quic_txpim_pkt_get_num_chunks(ptr noundef %0) #5
  %.not77 = icmp eq i64 %5, 0
  br i1 %.not77, label %._crit_edge, label %.lr.ph

.lr.ph:                                           ; preds = %1
  %6 = getelementptr inbounds nuw i8, ptr %3, i64 24
  %7 = getelementptr inbounds nuw i8, ptr %0, i64 32
  %8 = getelementptr inbounds nuw i8, ptr %3, i64 32
  %9 = getelementptr inbounds nuw i8, ptr %3, i64 56
  %10 = getelementptr inbounds nuw i8, ptr %3, i64 64
  %11 = getelementptr inbounds nuw i8, ptr %3, i64 72
  %12 = getelementptr inbounds nuw i8, ptr %3, i64 80
  br label %13

13:                                               ; preds = %.lr.ph, %60
  %.071 = phi i64 [ 0, %.lr.ph ], [ %61, %60 ]
  %14 = load ptr, ptr %6, align 8, !tbaa !13
  %15 = getelementptr inbounds nuw %struct.quic_txpim_chunk_st, ptr %4, i64 %.071
  %16 = load i64, ptr %15, align 8, !tbaa !40
  %17 = load i8, ptr %7, align 8
  %18 = and i8 %17, 3
  %19 = zext nneg i8 %18 to i32
  %20 = load ptr, ptr %8, align 8, !tbaa !14
  %21 = tail call ptr %14(i64 noundef %16, i32 noundef %19, ptr noundef %20) #5
  %22 = icmp eq ptr %21, null
  br i1 %22, label %60, label %23

23:                                               ; preds = %13
  %24 = getelementptr inbounds nuw i8, ptr %15, i64 16
  %25 = load i64, ptr %24, align 8, !tbaa !42
  %26 = getelementptr inbounds nuw i8, ptr %15, i64 8
  %27 = load i64, ptr %26, align 8, !tbaa !43
  %.not63 = icmp ult i64 %25, %27
  br i1 %.not63, label %30, label %28

28:                                               ; preds = %23
  %29 = tail call i32 @ossl_quic_sstream_mark_acked(ptr noundef nonnull %21, i64 noundef %27, i64 noundef %25) #5
  br label %30

30:                                               ; preds = %28, %23
  %31 = getelementptr inbounds nuw i8, ptr %15, i64 24
  %32 = load i8, ptr %31, align 8
  %33 = and i8 %32, 1
  %.not64 = icmp eq i8 %33, 0
  br i1 %.not64, label %38, label %34

34:                                               ; preds = %30
  %35 = load i64, ptr %15, align 8, !tbaa !40
  %.not65 = icmp eq i64 %35, -1
  br i1 %.not65, label %38, label %36

36:                                               ; preds = %34
  %37 = tail call i32 @ossl_quic_sstream_mark_acked_fin(ptr noundef nonnull %21) #5
  %.pre = load i8, ptr %31, align 8
  br label %38

38:                                               ; preds = %36, %34, %30
  %39 = phi i8 [ %.pre, %36 ], [ %32, %34 ], [ %32, %30 ]
  %40 = and i8 %39, 2
  %.not66 = icmp eq i8 %40, 0
  br i1 %.not66, label %46, label %41

41:                                               ; preds = %38
  %42 = load i64, ptr %15, align 8, !tbaa !40
  %.not67 = icmp eq i64 %42, -1
  br i1 %.not67, label %46, label %43

43:                                               ; preds = %41
  %44 = load ptr, ptr %9, align 8, !tbaa !17
  %45 = load ptr, ptr %10, align 8, !tbaa !18
  tail call void %44(i64 noundef 5, i64 noundef %42, ptr noundef nonnull %0, ptr noundef %45) #5
  %.pre78 = load i8, ptr %31, align 8
  br label %46

46:                                               ; preds = %43, %41, %38
  %47 = phi i8 [ %.pre78, %43 ], [ %39, %41 ], [ %39, %38 ]
  %48 = and i8 %47, 4
  %.not68 = icmp eq i8 %48, 0
  br i1 %.not68, label %54, label %49

49:                                               ; preds = %46
  %50 = load i64, ptr %15, align 8, !tbaa !40
  %.not69 = icmp eq i64 %50, -1
  br i1 %.not69, label %54, label %51

51:                                               ; preds = %49
  %52 = load ptr, ptr %9, align 8, !tbaa !17
  %53 = load ptr, ptr %10, align 8, !tbaa !18
  tail call void %52(i64 noundef 4, i64 noundef %50, ptr noundef nonnull %0, ptr noundef %53) #5
  br label %54

54:                                               ; preds = %51, %49, %46
  %55 = tail call i32 @ossl_quic_sstream_is_totally_acked(ptr noundef nonnull %21) #5
  %.not70 = icmp eq i32 %55, 0
  br i1 %.not70, label %60, label %56

56:                                               ; preds = %54
  %57 = load ptr, ptr %11, align 8, !tbaa !19
  %58 = load i64, ptr %15, align 8, !tbaa !40
  %59 = load ptr, ptr %12, align 8, !tbaa !20
  tail call void %57(i64 noundef %58, ptr noundef %59) #5
  br label %60

60:                                               ; preds = %54, %56, %13
  %61 = add nuw i64 %.071, 1
  %exitcond.not = icmp eq i64 %61, %5
  br i1 %exitcond.not, label %._crit_edge, label %13, !llvm.loop !50

._crit_edge:                                      ; preds = %60, %1
  %62 = getelementptr inbounds nuw i8, ptr %0, i64 104
  %63 = load ptr, ptr %62, align 8, !tbaa !46
  %.not72 = icmp eq ptr %63, null
  br i1 %.not72, label %._crit_edge76, label %.lr.ph75

.lr.ph75:                                         ; preds = %._crit_edge, %.lr.ph75
  %.05773 = phi ptr [ %65, %.lr.ph75 ], [ %63, %._crit_edge ]
  %64 = getelementptr inbounds nuw i8, ptr %.05773, i64 8
  %65 = load ptr, ptr %64, align 8, !tbaa !47
  %66 = load ptr, ptr %3, align 8, !tbaa !3
  tail call void @ossl_quic_cfq_release(ptr noundef %66, ptr noundef nonnull %.05773) #5
  %.not = icmp eq ptr %65, null
  br i1 %.not, label %._crit_edge76, label %.lr.ph75, !llvm.loop !51

._crit_edge76:                                    ; preds = %.lr.ph75, %._crit_edge
  %67 = getelementptr inbounds nuw i8, ptr %3, i64 16
  %68 = load ptr, ptr %67, align 8, !tbaa !12
  tail call void @ossl_quic_txpim_pkt_release(ptr noundef %68, ptr noundef %0) #5
  ret void
}